target datalayout = "e-m:e-p270:32:32-p271:32:32-p272:64:64-i64:64-i128:128-f80:128-n8:16:32:64-S128"
target triple = "x86_64-pc-linux-gnu"

%struct._snmp_usm_params_t = type { i32, i32, i32, i32, i32, i32, ptr, ptr, ptr, ptr, ptr, ptr, ptr, i32 }
%struct._asn1_ctx_t = type { i32, i32, i8, ptr, ptr, ptr, ptr, ptr, %struct.anon.0, %struct.anon.3, %struct.anon.4, ptr }
%struct.anon.0 = type { i32, i8, i8, i8, ptr, ptr, i32, i32, ptr, ptr, ptr, %union.anon }
%union.anon = type { %struct.anon.1 }
%struct.anon.1 = type { ptr }
%struct.anon.3 = type { ptr, ptr, ptr }
%struct.anon.4 = type { i32, i8, ptr, i32, i32, ptr, ptr, ptr, %union.anon.5 }
%union.anon.5 = type { %struct.anon.6 }
%struct.anon.6 = type { ptr }

@usm_p = internal global %struct._snmp_usm_params_t zeroinitializer, align 8
@hf_snmp_v3_flags_auth = internal global i32 0, align 4
@hf_snmp_v3_flags_crypt = internal global i32 0, align 4
@hf_snmp_v3_flags_report = internal global i32 0, align 4
@ett_msgFlags = internal global i32 0, align 4

; Function Attrs: nounwind uwtable
define internal i32 @dissect_snmp_T_msgFlags(i1 noundef zeroext %0, ptr noundef %1, i32 noundef %2, ptr noundef %3, ptr noundef %4, i32 noundef %5) #0 {
  %7 = alloca i8, align 1
  %8 = alloca ptr, align 8
  %9 = alloca i32, align 4
  %10 = alloca ptr, align 8
  %11 = alloca ptr, align 8
  %12 = alloca i32, align 4
  %13 = alloca ptr, align 8
  %14 = alloca i8, align 1
  %15 = alloca ptr, align 8
  %16 = zext i1 %0 to i8
  store i8 %16, ptr %7, align 1
  store ptr %1, ptr %8, align 8
  store i32 %2, ptr %9, align 4
  store ptr %3, ptr %10, align 8
  store ptr %4, ptr %11, align 8
  store i32 %5, ptr %12, align 4
  store ptr null, ptr %13, align 8
  %17 = load i8, ptr %7, align 1
  %18 = trunc i8 %17 to i1
  %19 = load ptr, ptr %10, align 8
  %20 = load ptr, ptr %11, align 8
  %21 = load ptr, ptr %8, align 8
  %22 = load i32, ptr %9, align 4
  %23 = load i32, ptr %12, align 4
  %24 = call i32 @dissect_ber_octet_string(i1 noundef zeroext %18, ptr noundef %19, ptr noundef %20, ptr noundef %21, i32 noundef %22, i32 noundef %23, ptr noundef %13)
  store i32 %24, ptr %9, align 4
  %25 = load ptr, ptr %13, align 8
  %26 = icmp ne ptr %25, null
  br i1 %26, label %27, label %58

27:                                               ; preds = %6
  %28 = load ptr, ptr %13, align 8
  %29 = call zeroext i8 @tvb_get_guint8(ptr noundef %28, i32 noundef 0)
  store i8 %29, ptr %14, align 1
  %30 = load ptr, ptr %10, align 8
  %31 = getelementptr inbounds %struct._asn1_ctx_t, ptr %30, i32 0, i32 4
  %32 = load ptr, ptr %31, align 8
  %33 = load i32, ptr @ett_msgFlags, align 4
  %34 = call ptr @proto_item_add_subtree(ptr noundef %32, i32 noundef %33)
  store ptr %34, ptr %15, align 8
  %35 = load ptr, ptr %15, align 8
  %36 = load i32, ptr @hf_snmp_v3_flags_report, align 4
  %37 = load ptr, ptr %13, align 8
  %38 = call ptr @proto_tree_add_item(ptr noundef %35, i32 noundef %36, ptr noundef %37, i32 noundef 0, i32 noundef 1, i32 noundef 0)
  %39 = load ptr, ptr %15, align 8
  %40 = load i32, ptr @hf_snmp_v3_flags_crypt, align 4
  %41 = load ptr, ptr %13, align 8
  %42 = call ptr @proto_tree_add_item(ptr noundef %39, i32 noundef %40, ptr noundef %41, i32 noundef 0, i32 noundef 1, i32 noundef 0)
  %43 = load ptr, ptr %15, align 8
  %44 = load i32, ptr @hf_snmp_v3_flags_auth, align 4
  %45 = load ptr, ptr %13, align 8
  %46 = call ptr @proto_tree_add_item(ptr noundef %43, i32 noundef %44, ptr noundef %45, i32 noundef 0, i32 noundef 1, i32 noundef 0)
  %47 = load i8, ptr %14, align 1
  %48 = zext i8 %47 to i32
  %49 = and i32 %48, 2
  %50 = icmp ne i32 %49, 0
  %51 = select i1 %50, i32 1, i32 0
  %52 = getelementptr inbounds %struct._snmp_usm_params_t, ptr @usm_p, i32 0, i32 1
  store i32 %51, ptr %52, align 4
  %53 = load i8, ptr %14, align 1
  %54 = zext i8 %53 to i32
  %55 = and i32 %54, 1
  %56 = icmp ne i32 %55, 0
  %57 = select i1 %56, i32 1, i32 0
  store i32 %57, ptr @usm_p, align 8
  br label %58

58:                                               ; preds = %27, %6
  %59 = load i32, ptr %9, align 4
  ret i32 %59
}