; Function Attrs: nounwind uwtable
define internal i32 @dissect_snmp_T_msgFlags(i1 noundef zeroext %0, ptr noundef %1, i32 noundef %2, ptr noundef %3, ptr noundef %4, i32 noundef %5) #0 {
  %7 = alloca ptr, align 8
  store ptr null, ptr %7, align 8
  %8 = call i32 @dissect_ber_octet_string(i1 noundef zeroext %0, ptr noundef %3, ptr noundef %4, ptr noundef %1, i32 noundef %2, i32 noundef %5, ptr noundef nonnull %7) #11
  %9 = load ptr, ptr %7, align 8
  %.not = icmp eq ptr %9, null
  br i1 %.not, label %28, label %10

10:                                               ; preds = %6
  %11 = call zeroext i8 @tvb_get_guint8(ptr noundef nonnull %9, i32 noundef 0) #11
  %12 = getelementptr inbounds nuw i8, ptr %3, i64 24
  %13 = load ptr, ptr %12, align 8
  %14 = load i32, ptr @ett_msgFlags, align 4
  %15 = call ptr @proto_item_add_subtree(ptr noundef %13, i32 noundef %14) #11
  %16 = load i32, ptr @hf_snmp_v3_flags_report, align 4
  %17 = load ptr, ptr %7, align 8
  %18 = call ptr @proto_tree_add_item(ptr noundef %15, i32 noundef %16, ptr noundef %17, i32 noundef 0, i32 noundef 1, i32 noundef 0) #11
  %19 = load i32, ptr @hf_snmp_v3_flags_crypt, align 4
  %20 = load ptr, ptr %7, align 8
  %21 = call ptr @proto_tree_add_item(ptr noundef %15, i32 noundef %19, ptr noundef %20, i32 noundef 0, i32 noundef 1, i32 noundef 0) #11
  %22 = load i32, ptr @hf_snmp_v3_flags_auth, align 4
  %23 = load ptr, ptr %7, align 8
  %24 = call ptr @proto_tree_add_item(ptr noundef %15, i32 noundef %22, ptr noundef %23, i32 noundef 0, i32 noundef 1, i32 noundef 0) #11
  %25 = zext i8 %11 to i32
  %26 = lshr i32 %25, 1
  %.lobit = and i32 %26, 1
  store i32 %.lobit, ptr getelementptr inbounds nuw (i8, ptr @usm_p, i64 4), align 4
  %27 = and i32 %25, 1
  store i32 %27, ptr @usm_p, align 8
  br label %28

28:                                               ; preds = %10, %6
  ret i32 %8
}